target datalayout = "e-m:e-p270:32:32-p271:32:32-p272:64:64-i64:64-i128:128-f80:128-n8:16:32:64-S128"
target triple = "x86_64-pc-linux-gnu"

%"struct.Luau::CodeGen::X64::RegisterX64" = type { i8 }
%"class.Luau::CodeGen::UnwindBuilderWin" = type <{ %"class.Luau::CodeGen::UnwindBuilder", i64, [1024 x i8], ptr, %"class.std::vector", %"class.std::vector.0", i8, %"struct.Luau::CodeGen::X64::RegisterX64", i8, [5 x i8] }>
%"class.Luau::CodeGen::UnwindBuilder" = type { ptr }
%"class.std::vector" = type { %"struct.std::_Vector_base" }
%"struct.std::_Vector_base" = type { %"struct.std::_Vector_base<Luau::CodeGen::UnwindFunctionWin, std::allocator<Luau::CodeGen::UnwindFunctionWin>>::_Vector_impl" }
%"struct.std::_Vector_base<Luau::CodeGen::UnwindFunctionWin, std::allocator<Luau::CodeGen::UnwindFunctionWin>>::_Vector_impl" = type { %"struct.std::_Vector_base<Luau::CodeGen::UnwindFunctionWin, std::allocator<Luau::CodeGen::UnwindFunctionWin>>::_Vector_impl_data" }
%"struct.std::_Vector_base<Luau::CodeGen::UnwindFunctionWin, std::allocator<Luau::CodeGen::UnwindFunctionWin>>::_Vector_impl_data" = type { ptr, ptr, ptr }
%"class.std::vector.0" = type { %"struct.std::_Vector_base.1" }
%"struct.std::_Vector_base.1" = type { %"struct.std::_Vector_base<Luau::CodeGen::UnwindCodeWin, std::allocator<Luau::CodeGen::UnwindCodeWin>>::_Vector_impl" }
%"struct.std::_Vector_base<Luau::CodeGen::UnwindCodeWin, std::allocator<Luau::CodeGen::UnwindCodeWin>>::_Vector_impl" = type { %"struct.std::_Vector_base<Luau::CodeGen::UnwindCodeWin, std::allocator<Luau::CodeGen::UnwindCodeWin>>::_Vector_impl_data" }
%"struct.std::_Vector_base<Luau::CodeGen::UnwindCodeWin, std::allocator<Luau::CodeGen::UnwindCodeWin>>::_Vector_impl_data" = type { ptr, ptr, ptr }
%"struct.Luau::CodeGen::UnwindFunctionWin" = type { i32, i32, i32 }
%"class.__gnu_cxx::__normal_iterator.12" = type { ptr }
%"struct.Luau::CodeGen::UnwindCodeWin" = type { i8, i8 }
%"struct.Luau::CodeGen::UnwindInfoWin" = type { i8, i8, i8, i8 }
%"class.__gnu_cxx::__normal_iterator.13" = type { ptr }

; Function Attrs: mustprogress nounwind uwtable
define linkonce_odr dso_local noundef nonnull align 8 dereferenceable(8) ptr @_ZNK9__gnu_cxx17__normal_iteratorIPKN4Luau7CodeGen13UnwindCodeWinESt6vectorIS3_SaIS3_EEE4baseEv(ptr noundef nonnull align 8 dereferenceable(8) %0) #0 comdat align 2 {
  %2 = alloca ptr, align 8
  store ptr %0, ptr %2, align 8
  %3 = load ptr, ptr %2, align 8
  %4 = getelementptr inbounds %"class.__gnu_cxx::__normal_iterator.13", ptr %3, i32 0, i32 0
  ret ptr %4
}

; Function Attrs: mustprogress nounwind uwtable
define linkonce_odr dso_local void @_ZN9__gnu_cxx17__normal_iteratorIPKN4Luau7CodeGen13UnwindCodeWinESt6vectorIS3_SaIS3_EEEC2ERKS5_(ptr noundef nonnull align 8 dereferenceable(8) %0, ptr noundef nonnull align 8 dereferenceable(8) %1) unnamed_addr #0 comdat align 2 {
  %3 = alloca ptr, align 8
  %4 = alloca ptr, align 8
  store ptr %0, ptr %3, align 8
  store ptr %1, ptr %4, align 8
  %5 = load ptr, ptr %3, align 8
  %6 = getelementptr inbounds %"class.__gnu_cxx::__normal_iterator.13", ptr %5, i32 0, i32 0
  %7 = load ptr, ptr %4, align 8
  %8 = load ptr, ptr %7, align 8
  store ptr %8, ptr %6, align 8
  ret void
}

; Function Attrs: mustprogress nounwind uwtable
define linkonce_odr dso_local void @_ZN9__gnu_cxx17__normal_iteratorIPN4Luau7CodeGen17UnwindFunctionWinESt6vectorIS3_SaIS3_EEEC2ERKS4_(ptr noundef nonnull align 8 dereferenceable(8) %0, ptr noundef nonnull align 8 dereferenceable(8) %1) unnamed_addr #0 comdat align 2 {
  %3 = alloca ptr, align 8
  %4 = alloca ptr, align 8
  store ptr %0, ptr %3, align 8
  store ptr %1, ptr %4, align 8
  %5 = load ptr, ptr %3, align 8
  %6 = getelementptr inbounds %"class.__gnu_cxx::__normal_iterator.12", ptr %5, i32 0, i32 0
  %7 = load ptr, ptr %4, align 8
  %8 = load ptr, ptr %7, align 8
  store ptr %8, ptr %6, align 8
  ret void
}

; Function Attrs: mustprogress nounwind uwtable
define linkonce_odr dso_local noundef zeroext i1 @_ZN9__gnu_cxxeqIPKN4Luau7CodeGen13UnwindCodeWinESt6vectorIS3_SaIS3_EEEEbRKNS_17__normal_iteratorIT_T0_EESE_(ptr noundef nonnull align 8 dereferenceable(8) %0, ptr noundef nonnull align 8 dereferenceable(8) %1) #0 comdat {
  %3 = alloca ptr, align 8
  %4 = alloca ptr, align 8
  store ptr %0, ptr %3, align 8
  store ptr %1, ptr %4, align 8
  %5 = load ptr, ptr %3, align 8
  %6 = call noundef nonnull align 8 dereferenceable(8) ptr @_ZNK9__gnu_cxx17__normal_iteratorIPKN4Luau7CodeGen13UnwindCodeWinESt6vectorIS3_SaIS3_EEE4baseEv(ptr noundef nonnull align 8 dereferenceable(8) %5) #8
  %7 = load ptr, ptr %6, align 8
  %8 = load ptr, ptr %4, align 8
  %9 = call noundef nonnull align 8 dereferenceable(8) ptr @_ZNK9__gnu_cxx17__normal_iteratorIPKN4Luau7CodeGen13UnwindCodeWinESt6vectorIS3_SaIS3_EEE4baseEv(ptr noundef nonnull align 8 dereferenceable(8) %8) #8
  %10 = load ptr, ptr %9, align 8
  %11 = icmp eq ptr %7, %10
  ret i1 %11
}

; Function Attrs: mustprogress nounwind uwtable
define linkonce_odr dso_local ptr @_ZNKSt6vectorIN4Luau7CodeGen13UnwindCodeWinESaIS2_EE3endEv(ptr noundef nonnull align 8 dereferenceable(24) %0) #0 comdat align 2 {
  %2 = alloca %"class.__gnu_cxx::__normal_iterator.13", align 8
  %3 = alloca ptr, align 8
  store ptr %0, ptr %3, align 8
  %4 = load ptr, ptr %3, align 8
  %5 = getelementptr inbounds %"struct.std::_Vector_base.1", ptr %4, i32 0, i32 0
  %6 = getelementptr inbounds %"struct.std::_Vector_base<Luau::CodeGen::UnwindCodeWin, std::allocator<Luau::CodeGen::UnwindCodeWin>>::_Vector_impl_data", ptr %5, i32 0, i32 1
  call void @_ZN9__gnu_cxx17__normal_iteratorIPKN4Luau7CodeGen13UnwindCodeWinESt6vectorIS3_SaIS3_EEEC2ERKS5_(ptr noundef nonnull align 8 dereferenceable(8) %2, ptr noundef nonnull align 8 dereferenceable(8) %6) #8
  %7 = getelementptr inbounds %"class.__gnu_cxx::__normal_iterator.13", ptr %2, i32 0, i32 0
  %8 = load ptr, ptr %7, align 8
  ret ptr %8
}

; Function Attrs: mustprogress nounwind uwtable
define linkonce_odr dso_local ptr @_ZNKSt6vectorIN4Luau7CodeGen13UnwindCodeWinESaIS2_EE5beginEv(ptr noundef nonnull align 8 dereferenceable(24) %0) #0 comdat align 2 {
  %2 = alloca %"class.__gnu_cxx::__normal_iterator.13", align 8
  %3 = alloca ptr, align 8
  store ptr %0, ptr %3, align 8
  %4 = load ptr, ptr %3, align 8
  %5 = getelementptr inbounds %"struct.std::_Vector_base.1", ptr %4, i32 0, i32 0
  %6 = getelementptr inbounds %"struct.std::_Vector_base<Luau::CodeGen::UnwindCodeWin, std::allocator<Luau::CodeGen::UnwindCodeWin>>::_Vector_impl_data", ptr %5, i32 0, i32 0
  call void @_ZN9__gnu_cxx17__normal_iteratorIPKN4Luau7CodeGen13UnwindCodeWinESt6vectorIS3_SaIS3_EEEC2ERKS5_(ptr noundef nonnull align 8 dereferenceable(8) %2, ptr noundef nonnull align 8 dereferenceable(8) %6) #8
  %7 = getelementptr inbounds %"class.__gnu_cxx::__normal_iterator.13", ptr %2, i32 0, i32 0
  %8 = load ptr, ptr %7, align 8
  ret ptr %8
}

; Function Attrs: mustprogress nounwind uwtable
define linkonce_odr dso_local noundef nonnull align 4 dereferenceable(12) ptr @_ZNK9__gnu_cxx17__normal_iteratorIPN4Luau7CodeGen17UnwindFunctionWinESt6vectorIS3_SaIS3_EEEdeEv(ptr noundef nonnull align 8 dereferenceable(8) %0) #0 comdat align 2 {
  %2 = alloca ptr, align 8
  store ptr %0, ptr %2, align 8
  %3 = load ptr, ptr %2, align 8
  %4 = getelementptr inbounds %"class.__gnu_cxx::__normal_iterator.12", ptr %3, i32 0, i32 0
  %5 = load ptr, ptr %4, align 8
  ret ptr %5
}

; Function Attrs: mustprogress nounwind uwtable
define linkonce_odr dso_local ptr @_ZNK9__gnu_cxx17__normal_iteratorIPN4Luau7CodeGen17UnwindFunctionWinESt6vectorIS3_SaIS3_EEEmiEl(ptr noundef nonnull align 8 dereferenceable(8) %0, i64 noundef %1) #0 comdat align 2 {
  %3 = alloca %"class.__gnu_cxx::__normal_iterator.12", align 8
  %4 = alloca ptr, align 8
  %5 = alloca i64, align 8
  %6 = alloca ptr, align 8
  store ptr %0, ptr %4, align 8
  store i64 %1, ptr %5, align 8
  %7 = load ptr, ptr %4, align 8
  %8 = getelementptr inbounds %"class.__gnu_cxx::__normal_iterator.12", ptr %7, i32 0, i32 0
  %9 = load ptr, ptr %8, align 8
  %10 = load i64, ptr %5, align 8
  %11 = sub i64 0, %10
  %12 = getelementptr inbounds %"struct.Luau::CodeGen::UnwindFunctionWin", ptr %9, i64 %11
  store ptr %12, ptr %6, align 8
  call void @_ZN9__gnu_cxx17__normal_iteratorIPN4Luau7CodeGen17UnwindFunctionWinESt6vectorIS3_SaIS3_EEEC2ERKS4_(ptr noundef nonnull align 8 dereferenceable(8) %3, ptr noundef nonnull align 8 dereferenceable(8) %6) #8
  %13 = getelementptr inbounds %"class.__gnu_cxx::__normal_iterator.12", ptr %3, i32 0, i32 0
  %14 = load ptr, ptr %13, align 8
  ret ptr %14
}

; Function Attrs: mustprogress nounwind uwtable
define linkonce_odr dso_local ptr @_ZNSt6vectorIN4Luau7CodeGen17UnwindFunctionWinESaIS2_EE3endEv(ptr noundef nonnull align 8 dereferenceable(24) %0) #0 comdat align 2 {
  %2 = alloca %"class.__gnu_cxx::__normal_iterator.12", align 8
  %3 = alloca ptr, align 8
  store ptr %0, ptr %3, align 8
  %4 = load ptr, ptr %3, align 8
  %5 = getelementptr inbounds %"struct.std::_Vector_base", ptr %4, i32 0, i32 0
  %6 = getelementptr inbounds %"struct.std::_Vector_base<Luau::CodeGen::UnwindFunctionWin, std::allocator<Luau::CodeGen::UnwindFunctionWin>>::_Vector_impl_data", ptr %5, i32 0, i32 1
  call void @_ZN9__gnu_cxx17__normal_iteratorIPN4Luau7CodeGen17UnwindFunctionWinESt6vectorIS3_SaIS3_EEEC2ERKS4_(ptr noundef nonnull align 8 dereferenceable(8) %2, ptr noundef nonnull align 8 dereferenceable(8) %6) #8
  %7 = getelementptr inbounds %"class.__gnu_cxx::__normal_iterator.12", ptr %2, i32 0, i32 0
  %8 = load ptr, ptr %7, align 8
  ret ptr %8
}

; Function Attrs: mustprogress nounwind uwtable
define linkonce_odr dso_local noundef nonnull align 1 dereferenceable(2) ptr @_ZNSt6vectorIN4Luau7CodeGen13UnwindCodeWinESaIS2_EEixEm(ptr noundef nonnull align 8 dereferenceable(24) %0, i64 noundef %1) #0 comdat align 2 {
  %3 = alloca ptr, align 8
  %4 = alloca i64, align 8
  store ptr %0, ptr %3, align 8
  store i64 %1, ptr %4, align 8
  %5 = load ptr, ptr %3, align 8
  %6 = getelementptr inbounds %"struct.std::_Vector_base.1", ptr %5, i32 0, i32 0
  %7 = getelementptr inbounds %"struct.std::_Vector_base<Luau::CodeGen::UnwindCodeWin, std::allocator<Luau::CodeGen::UnwindCodeWin>>::_Vector_impl_data", ptr %6, i32 0, i32 0
  %8 = load ptr, ptr %7, align 8
  %9 = load i64, ptr %4, align 8
  %10 = getelementptr inbounds %"struct.Luau::CodeGen::UnwindCodeWin", ptr %8, i64 %9
  ret ptr %10
}

; Function Attrs: mustprogress nounwind uwtable
define linkonce_odr dso_local noundef zeroext i1 @_ZNKSt6vectorIN4Luau7CodeGen13UnwindCodeWinESaIS2_EE5emptyEv(ptr noundef nonnull align 8 dereferenceable(24) %0) #0 comdat align 2 {
  %2 = alloca ptr, align 8
  %3 = alloca %"class.__gnu_cxx::__normal_iterator.13", align 8
  %4 = alloca %"class.__gnu_cxx::__normal_iterator.13", align 8
  store ptr %0, ptr %2, align 8
  %5 = load ptr, ptr %2, align 8
  %6 = call ptr @_ZNKSt6vectorIN4Luau7CodeGen13UnwindCodeWinESaIS2_EE5beginEv(ptr noundef nonnull align 8 dereferenceable(24) %5) #8
  %7 = getelementptr inbounds %"class.__gnu_cxx::__normal_iterator.13", ptr %3, i32 0, i32 0
  store ptr %6, ptr %7, align 8
  %8 = call ptr @_ZNKSt6vectorIN4Luau7CodeGen13UnwindCodeWinESaIS2_EE3endEv(ptr noundef nonnull align 8 dereferenceable(24) %5) #8
  %9 = getelementptr inbounds %"class.__gnu_cxx::__normal_iterator.13", ptr %4, i32 0, i32 0
  store ptr %8, ptr %9, align 8
  %10 = call noundef zeroext i1 @_ZN9__gnu_cxxeqIPKN4Luau7CodeGen13UnwindCodeWinESt6vectorIS3_SaIS3_EEEEbRKNS_17__normal_iteratorIT_T0_EESE_(ptr noundef nonnull align 8 dereferenceable(8) %3, ptr noundef nonnull align 8 dereferenceable(8) %4) #8
  ret i1 %10
}

; Function Attrs: mustprogress nounwind uwtable
define linkonce_odr dso_local noundef i64 @_ZNKSt6vectorIN4Luau7CodeGen13UnwindCodeWinESaIS2_EE4sizeEv(ptr noundef nonnull align 8 dereferenceable(24) %0) #0 comdat align 2 {
  %2 = alloca ptr, align 8
  store ptr %0, ptr %2, align 8
  %3 = load ptr, ptr %2, align 8
  %4 = getelementptr inbounds %"struct.std::_Vector_base.1", ptr %3, i32 0, i32 0
  %5 = getelementptr inbounds %"struct.std::_Vector_base<Luau::CodeGen::UnwindCodeWin, std::allocator<Luau::CodeGen::UnwindCodeWin>>::_Vector_impl_data", ptr %4, i32 0, i32 1
  %6 = load ptr, ptr %5, align 8
  %7 = getelementptr inbounds %"struct.std::_Vector_base.1", ptr %3, i32 0, i32 0
  %8 = getelementptr inbounds %"struct.std::_Vector_base<Luau::CodeGen::UnwindCodeWin, std::allocator<Luau::CodeGen::UnwindCodeWin>>::_Vector_impl_data", ptr %7, i32 0, i32 0
  %9 = load ptr, ptr %8, align 8
  %10 = ptrtoint ptr %6 to i64
  %11 = ptrtoint ptr %9 to i64
  %12 = sub i64 %10, %11
  %13 = sdiv exact i64 %12, 2
  ret i64 %13
}

; Function Attrs: mustprogress nounwind uwtable
define linkonce_odr dso_local noundef nonnull align 4 dereferenceable(12) ptr @_ZNSt6vectorIN4Luau7CodeGen17UnwindFunctionWinESaIS2_EE4backEv(ptr noundef nonnull align 8 dereferenceable(24) %0) #0 comdat align 2 {
  %2 = alloca ptr, align 8
  %3 = alloca %"class.__gnu_cxx::__normal_iterator.12", align 8
  %4 = alloca %"class.__gnu_cxx::__normal_iterator.12", align 8
  store ptr %0, ptr %2, align 8
  %5 = load ptr, ptr %2, align 8
  %6 = call ptr @_ZNSt6vectorIN4Luau7CodeGen17UnwindFunctionWinESaIS2_EE3endEv(ptr noundef nonnull align 8 dereferenceable(24) %5) #8
  %7 = getelementptr inbounds %"class.__gnu_cxx::__normal_iterator.12", ptr %4, i32 0, i32 0
  store ptr %6, ptr %7, align 8
  %8 = call ptr @_ZNK9__gnu_cxx17__normal_iteratorIPN4Luau7CodeGen17UnwindFunctionWinESt6vectorIS3_SaIS3_EEEmiEl(ptr noundef nonnull align 8 dereferenceable(8) %4, i64 noundef 1) #8
  %9 = getelementptr inbounds %"class.__gnu_cxx::__normal_iterator.12", ptr %3, i32 0, i32 0
  store ptr %8, ptr %9, align 8
  %10 = call noundef nonnull align 4 dereferenceable(12) ptr @_ZNK9__gnu_cxx17__normal_iteratorIPN4Luau7CodeGen17UnwindFunctionWinESt6vectorIS3_SaIS3_EEEdeEv(ptr noundef nonnull align 8 dereferenceable(8) %3) #8
  ret ptr %10
}

; Function Attrs: mustprogress nounwind uwtable
define dso_local void @_ZN4Luau7CodeGen16UnwindBuilderWin14finishFunctionEjj(ptr noundef nonnull align 8 dereferenceable(1099) %0, i32 noundef %1, i32 noundef %2) unnamed_addr #0 align 2 {
  %4 = alloca ptr, align 8
  %5 = alloca i32, align 4
  %6 = alloca i32, align 4
  %7 = alloca %"struct.Luau::CodeGen::UnwindInfoWin", align 1
  %8 = alloca ptr, align 8
  %9 = alloca i64, align 8
  store ptr %0, ptr %4, align 8
  store i32 %1, ptr %5, align 4
  store i32 %2, ptr %6, align 4
  %10 = load ptr, ptr %4, align 8
  %11 = load i32, ptr %5, align 4
  %12 = getelementptr inbounds %"class.Luau::CodeGen::UnwindBuilderWin", ptr %10, i32 0, i32 4
  %13 = call noundef nonnull align 4 dereferenceable(12) ptr @_ZNSt6vectorIN4Luau7CodeGen17UnwindFunctionWinESaIS2_EE4backEv(ptr noundef nonnull align 8 dereferenceable(24) %12) #8
  %14 = getelementptr inbounds %"struct.Luau::CodeGen::UnwindFunctionWin", ptr %13, i32 0, i32 0
  store i32 %11, ptr %14, align 4
  %15 = load i32, ptr %6, align 4
  %16 = getelementptr inbounds %"class.Luau::CodeGen::UnwindBuilderWin", ptr %10, i32 0, i32 4
  %17 = call noundef nonnull align 4 dereferenceable(12) ptr @_ZNSt6vectorIN4Luau7CodeGen17UnwindFunctionWinESaIS2_EE4backEv(ptr noundef nonnull align 8 dereferenceable(24) %16) #8
  %18 = getelementptr inbounds %"struct.Luau::CodeGen::UnwindFunctionWin", ptr %17, i32 0, i32 1
  store i32 %15, ptr %18, align 4
  %19 = load i8, ptr %7, align 1
  %20 = and i8 %19, -8
  %21 = or i8 %20, 1
  store i8 %21, ptr %7, align 1
  %22 = load i8, ptr %7, align 1
  %23 = and i8 %22, 7
  %24 = or i8 %23, 0
  store i8 %24, ptr %7, align 1
  %25 = getelementptr inbounds %"class.Luau::CodeGen::UnwindBuilderWin", ptr %10, i32 0, i32 6
  %26 = load i8, ptr %25, align 8
  %27 = getelementptr inbounds %"struct.Luau::CodeGen::UnwindInfoWin", ptr %7, i32 0, i32 1
  store i8 %26, ptr %27, align 1
  %28 = getelementptr inbounds %"class.Luau::CodeGen::UnwindBuilderWin", ptr %10, i32 0, i32 5
  %29 = call noundef i64 @_ZNKSt6vectorIN4Luau7CodeGen13UnwindCodeWinESaIS2_EE4sizeEv(ptr noundef nonnull align 8 dereferenceable(24) %28) #8
  %30 = trunc i64 %29 to i8
  %31 = getelementptr inbounds %"struct.Luau::CodeGen::UnwindInfoWin", ptr %7, i32 0, i32 2
  store i8 %30, ptr %31, align 1
  %32 = getelementptr inbounds %"class.Luau::CodeGen::UnwindBuilderWin", ptr %10, i32 0, i32 7
  %33 = load i8, ptr %32, align 1
  %34 = lshr i8 %33, 3
  %35 = getelementptr inbounds %"struct.Luau::CodeGen::UnwindInfoWin", ptr %7, i32 0, i32 3
  %36 = load i8, ptr %35, align 1
  %37 = and i8 %34, 15
  %38 = and i8 %36, -16
  %39 = or i8 %38, %37
  store i8 %39, ptr %35, align 1
  %40 = getelementptr inbounds %"class.Luau::CodeGen::UnwindBuilderWin", ptr %10, i32 0, i32 8
  %41 = load i8, ptr %40, align 2
  %42 = getelementptr inbounds %"struct.Luau::CodeGen::UnwindInfoWin", ptr %7, i32 0, i32 3
  %43 = load i8, ptr %42, align 1
  %44 = and i8 %41, 15
  %45 = shl i8 %44, 4
  %46 = and i8 %43, 15
  %47 = or i8 %46, %45
  store i8 %47, ptr %42, align 1
  %48 = getelementptr inbounds %"class.Luau::CodeGen::UnwindBuilderWin", ptr %10, i32 0, i32 3
  %49 = load ptr, ptr %48, align 8
  call void @llvm.memcpy.p0.p0.i64(ptr align 1 %49, ptr align 1 %7, i64 4, i1 false)
  %50 = getelementptr inbounds %"class.Luau::CodeGen::UnwindBuilderWin", ptr %10, i32 0, i32 3
  %51 = load ptr, ptr %50, align 8
  %52 = getelementptr inbounds i8, ptr %51, i64 4
  store ptr %52, ptr %50, align 8
  %53 = getelementptr inbounds %"class.Luau::CodeGen::UnwindBuilderWin", ptr %10, i32 0, i32 5
  %54 = call noundef zeroext i1 @_ZNKSt6vectorIN4Luau7CodeGen13UnwindCodeWinESaIS2_EE5emptyEv(ptr noundef nonnull align 8 dereferenceable(24) %53) #8
  br i1 %54, label %79, label %55

55:                                               ; preds = %3
  %56 = getelementptr inbounds %"class.Luau::CodeGen::UnwindBuilderWin", ptr %10, i32 0, i32 3
  %57 = load ptr, ptr %56, align 8
  %58 = getelementptr inbounds %"class.Luau::CodeGen::UnwindBuilderWin", ptr %10, i32 0, i32 5
  %59 = call noundef i64 @_ZNKSt6vectorIN4Luau7CodeGen13UnwindCodeWinESaIS2_EE4sizeEv(ptr noundef nonnull align 8 dereferenceable(24) %58) #8
  %60 = sub i64 %59, 1
  %61 = mul i64 2, %60
  %62 = getelementptr inbounds i8, ptr %57, i64 %61
  store ptr %62, ptr %8, align 8
  store i64 0, ptr %9, align 8
  br label %63

63:                                               ; preds = %75, %55
  %64 = load i64, ptr %9, align 8
  %65 = getelementptr inbounds %"class.Luau::CodeGen::UnwindBuilderWin", ptr %10, i32 0, i32 5
  %66 = call noundef i64 @_ZNKSt6vectorIN4Luau7CodeGen13UnwindCodeWinESaIS2_EE4sizeEv(ptr noundef nonnull align 8 dereferenceable(24) %65) #8
  %67 = icmp ult i64 %64, %66
  br i1 %67, label %68, label %78

68:                                               ; preds = %63
  %69 = load ptr, ptr %8, align 8
  %70 = getelementptr inbounds %"class.Luau::CodeGen::UnwindBuilderWin", ptr %10, i32 0, i32 5
  %71 = load i64, ptr %9, align 8
  %72 = call noundef nonnull align 1 dereferenceable(2) ptr @_ZNSt6vectorIN4Luau7CodeGen13UnwindCodeWinESaIS2_EEixEm(ptr noundef nonnull align 8 dereferenceable(24) %70, i64 noundef %71) #8
  call void @llvm.memcpy.p0.p0.i64(ptr align 1 %69, ptr align 1 %72, i64 2, i1 false)
  %73 = load ptr, ptr %8, align 8
  %74 = getelementptr inbounds i8, ptr %73, i64 -2
  store ptr %74, ptr %8, align 8
  br label %75

75:                                               ; preds = %68
  %76 = load i64, ptr %9, align 8
  %77 = add i64 %76, 1
  store i64 %77, ptr %9, align 8
  br label %63, !llvm.loop !5

78:                                               ; preds = %63
  br label %79

79:                                               ; preds = %78, %3
  %80 = getelementptr inbounds %"class.Luau::CodeGen::UnwindBuilderWin", ptr %10, i32 0, i32 5
  %81 = call noundef i64 @_ZNKSt6vectorIN4Luau7CodeGen13UnwindCodeWinESaIS2_EE4sizeEv(ptr noundef nonnull align 8 dereferenceable(24) %80) #8
  %82 = mul i64 2, %81
  %83 = getelementptr inbounds %"class.Luau::CodeGen::UnwindBuilderWin", ptr %10, i32 0, i32 3
  %84 = load ptr, ptr %83, align 8
  %85 = getelementptr inbounds i8, ptr %84, i64 %82
  store ptr %85, ptr %83, align 8
  %86 = getelementptr inbounds %"class.Luau::CodeGen::UnwindBuilderWin", ptr %10, i32 0, i32 5
  %87 = call noundef i64 @_ZNKSt6vectorIN4Luau7CodeGen13UnwindCodeWinESaIS2_EE4sizeEv(ptr noundef nonnull align 8 dereferenceable(24) %86) #8
  %88 = urem i64 %87, 2
  %89 = icmp ne i64 %88, 0
  br i1 %89, label %90, label %94

90:                                               ; preds = %79
  %91 = getelementptr inbounds %"class.Luau::CodeGen::UnwindBuilderWin", ptr %10, i32 0, i32 3
  %92 = load ptr, ptr %91, align 8
  %93 = getelementptr inbounds i8, ptr %92, i64 2
  store ptr %93, ptr %91, align 8
  br label %94

94:                                               ; preds = %90, %79
  ret void
}