; Function Attrs: mustprogress nofree norecurse nosync nounwind memory(readwrite, inaccessiblemem: none) uwtable
define dso_local void @_ZN4Luau7CodeGen16UnwindBuilderWin14finishFunctionEjj(ptr nocapture noundef nonnull align 8 dereferenceable(1099) %0, i32 noundef %1, i32 noundef %2) unnamed_addr #5 align 2 {
  %4 = getelementptr inbounds i8, ptr %0, i64 1056
  %5 = load ptr, ptr %4, align 8
  %6 = getelementptr inbounds i8, ptr %5, i64 -12
  store i32 %1, ptr %6, align 4
  %7 = load ptr, ptr %4, align 8
  %8 = getelementptr inbounds i8, ptr %7, i64 -8
  store i32 %2, ptr %8, align 4
  %9 = getelementptr inbounds i8, ptr %0, i64 1096
  %10 = load i8, ptr %9, align 8
  %11 = getelementptr inbounds i8, ptr %0, i64 1072
  %12 = getelementptr inbounds i8, ptr %0, i64 1080
  %13 = load ptr, ptr %12, align 8
  %14 = load ptr, ptr %11, align 8
  %15 = ptrtoint ptr %13 to i64
  %16 = ptrtoint ptr %14 to i64
  %17 = sub i64 %15, %16
  %18 = lshr exact i64 %17, 1
  %19 = trunc i64 %18 to i8
  %20 = getelementptr inbounds i8, ptr %0, i64 1097
  %21 = load i8, ptr %20, align 1
  %22 = lshr i8 %21, 3
  %23 = and i8 %22, 15
  %24 = getelementptr inbounds i8, ptr %0, i64 1098
  %25 = load i8, ptr %24, align 2
  %26 = shl i8 %25, 4
  %27 = or disjoint i8 %23, %26
  %28 = getelementptr inbounds i8, ptr %0, i64 1040
  %29 = load ptr, ptr %28, align 8
  store i8 1, ptr %29, align 1
  %.sroa.5.0..sroa_idx = getelementptr inbounds i8, ptr %29, i64 1
  store i8 %10, ptr %.sroa.5.0..sroa_idx, align 1
  %.sroa.6.0..sroa_idx = getelementptr inbounds i8, ptr %29, i64 2
  store i8 %19, ptr %.sroa.6.0..sroa_idx, align 1
  %.sroa.7.0..sroa_idx = getelementptr inbounds i8, ptr %29, i64 3
  store i8 %27, ptr %.sroa.7.0..sroa_idx, align 1
  %30 = load ptr, ptr %28, align 8
  %31 = getelementptr inbounds i8, ptr %30, i64 4
  store ptr %31, ptr %28, align 8
  %32 = load ptr, ptr %11, align 8
  %33 = load ptr, ptr %12, align 8
  %34 = icmp eq ptr %32, %33
  br i1 %34, label %.loopexit, label %.lr.ph.preheader

.lr.ph.preheader:                                 ; preds = %3
  %35 = ptrtoint ptr %33 to i64
  %36 = ptrtoint ptr %32 to i64
  %37 = sub i64 %35, %36
  %38 = getelementptr i8, ptr %31, i64 %37
  br label %.lr.ph

.lr.ph:                                           ; preds = %.lr.ph.preheader, %.lr.ph
  %39 = phi ptr [ %44, %.lr.ph ], [ %32, %.lr.ph.preheader ]
  %.011 = phi i64 [ %42, %.lr.ph ], [ 0, %.lr.ph.preheader ]
  %.pn10 = phi ptr [ %.09, %.lr.ph ], [ %38, %.lr.ph.preheader ]
  %.09 = getelementptr inbounds i8, ptr %.pn10, i64 -2
  %40 = getelementptr inbounds %"struct.Luau::CodeGen::UnwindCodeWin", ptr %39, i64 %.011
  %41 = load i16, ptr %40, align 1
  store i16 %41, ptr %.09, align 1
  %42 = add nuw i64 %.011, 1
  %43 = load ptr, ptr %12, align 8
  %44 = load ptr, ptr %11, align 8
  %45 = ptrtoint ptr %43 to i64
  %46 = ptrtoint ptr %44 to i64
  %47 = sub i64 %45, %46
  %48 = ashr exact i64 %47, 1
  %49 = icmp ult i64 %42, %48
  br i1 %49, label %.lr.ph, label %.loopexit.loopexit, !llvm.loop !5

.loopexit.loopexit:                               ; preds = %.lr.ph
  %.pre = load ptr, ptr %28, align 8
  br label %.loopexit

.loopexit:                                        ; preds = %3, %.loopexit.loopexit
  %.pre-phi17 = phi i64 [ %47, %.loopexit.loopexit ], [ 0, %3 ]
  %50 = phi ptr [ %.pre, %.loopexit.loopexit ], [ %31, %3 ]
  %51 = getelementptr inbounds i8, ptr %50, i64 %.pre-phi17
  %52 = and i64 %.pre-phi17, 2
  %spec.select = getelementptr inbounds i8, ptr %51, i64 %52
  store ptr %spec.select, ptr %28, align 8
  ret void
}